; ModuleID = '43/1502.c'
source_filename = "43/1502.c"
target datalayout = "e-m:e-p270:32:32-p271:32:32-p272:64:64-i64:64-f80:128-n8:16:32:64-S128"
target triple = "x86_64-pc-linux-gnu"

@.str = private unnamed_addr constant [3 x i8] c"%d\00", align 1
@.str.1 = private unnamed_addr constant [4 x i8] c"3 3\00", align 1
@.str.2 = private unnamed_addr constant [4 x i8] c"3 5\00", align 1
@.str.3 = private unnamed_addr constant [7 x i8] c"%d %d\0A\00", align 1

; Function Attrs: noinline nounwind uwtable
define dso_local i32 @main() #0 {
  %1 = alloca i32, align 4
  %2 = alloca i32, align 4
  %3 = alloca i32, align 4
  store i32 0, i32* %1, align 4
  %4 = call i32 (i8*, ...) @__isoc99_scanf(i8* getelementptr inbounds ([3 x i8], [3 x i8]* @.str, i64 0, i64 0), i32* %2)
  %5 = load i32, i32* %2, align 4
  %6 = icmp eq i32 %5, 6
  br i1 %6, label %7, label %9

7:                                                ; preds = %0
  %8 = call i32 (i8*, ...) @printf(i8* getelementptr inbounds ([4 x i8], [4 x i8]* @.str.1, i64 0, i64 0))
  br label %42

9:                                                ; preds = %0
  %10 = load i32, i32* %2, align 4
  %11 = icmp eq i32 %10, 8
  br i1 %11, label %12, label %14

12:                                               ; preds = %9
  %13 = call i32 (i8*, ...) @printf(i8* getelementptr inbounds ([4 x i8], [4 x i8]* @.str.2, i64 0, i64 0))
  br label %41

14:                                               ; preds = %9
  store i32 3, i32* %3, align 4
  br label %15

15:                                               ; preds = %37, %14
  %16 = load i32, i32* %3, align 4
  %17 = load i32, i32* %2, align 4
  %18 = sdiv i32 %17, 2
  %19 = icmp sle i32 %16, %18
  br i1 %19, label %20, label %40

20:                                               ; preds = %15
  %21 = load i32, i32* %3, align 4
  %22 = call i32 @sushu(i32 %21)
  %23 = icmp eq i32 %22, 1
  br i1 %23, label %24, label %36

24:                                               ; preds = %20
  %25 = load i32, i32* %2, align 4
  %26 = load i32, i32* %3, align 4
  %27 = sub nsw i32 %25, %26
  %28 = call i32 @sushu(i32 %27)
  %29 = icmp eq i32 %28, 1
  br i1 %29, label %30, label %36

30:                                               ; preds = %24
  %31 = load i32, i32* %3, align 4
  %32 = load i32, i32* %2, align 4
  %33 = load i32, i32* %3, align 4
  %34 = sub nsw i32 %32, %33
  %35 = call i32 (i8*, ...) @printf(i8* getelementptr inbounds ([7 x i8], [7 x i8]* @.str.3, i64 0, i64 0), i32 %31, i32 %34)
  br label %36

36:                                               ; preds = %30, %24, %20
  br label %37

37:                                               ; preds = %36
  %38 = load i32, i32* %3, align 4
  %39 = add nsw i32 %38, 2
  store i32 %39, i32* %3, align 4
  br label %15

40:                                               ; preds = %15
  br label %41

41:                                               ; preds = %40, %12
  br label %42

42:                                               ; preds = %41, %7
  %43 = load i32, i32* %1, align 4
  ret i32 %43
}

declare dso_local i32 @__isoc99_scanf(i8*, ...) #1

declare dso_local i32 @printf(i8*, ...) #1

; Function Attrs: noinline nounwind uwtable
define dso_local i32 @sushu(i32 %0) #0 {
  %2 = alloca i32, align 4
  %3 = alloca i32, align 4
  %4 = alloca i32, align 4
  store i32 %0, i32* %3, align 4
  store i32 2, i32* %4, align 4
  br label %5

5:                                                ; preds = %20, %1
  %6 = load i32, i32* %4, align 4
  %7 = sitofp i32 %6 to double
  %8 = load i32, i32* %3, align 4
  %9 = sitofp i32 %8 to double
  %10 = call double @sqrt(double %9) #3
  %11 = fadd double %10, 1.000000e+00
  %12 = fcmp olt double %7, %11
  br i1 %12, label %13, label %23

13:                                               ; preds = %5
  %14 = load i32, i32* %3, align 4
  %15 = load i32, i32* %4, align 4
  %16 = srem i32 %14, %15
  %17 = icmp eq i32 %16, 0
  br i1 %17, label %18, label %19

18:                                               ; preds = %13
  br label %23

19:                                               ; preds = %13
  br label %20

20:                                               ; preds = %19
  %21 = load i32, i32* %4, align 4
  %22 = add nsw i32 %21, 1
  store i32 %22, i32* %4, align 4
  br label %5

23:                                               ; preds = %18, %5
  %24 = load i32, i32* %4, align 4
  %25 = sitofp i32 %24 to double
  %26 = load i32, i32* %3, align 4
  %27 = sitofp i32 %26 to double
  %28 = call double @sqrt(double %27) #3
  %29 = fadd double %28, 1.000000e+00
  %30 = fcmp oge double %25, %29
  br i1 %30, label %31, label %32

31:                                               ; preds = %23
  store i32 1, i32* %2, align 4
  br label %33

32:                                               ; preds = %23
  store i32 0, i32* %2, align 4
  br label %33

33:                                               ; preds = %32, %31
  %34 = load i32, i32* %2, align 4
  ret i32 %34
}

; Function Attrs: nounwind
declare dso_local double @sqrt(double) #2


!llvm.module.flags = !{!0}
!llvm.ident = !{!1}

!0 = !{i32 1, !"wchar_size", i32 4}
!1 = !{!"clang version 10.0.0-4ubuntu1 "}
